target datalayout = "e-m:e-p270:32:32-p271:32:32-p272:64:64-i64:64-i128:128-f80:128-n8:16:32:64-S128"
target triple = "x86_64-pc-linux-gnu"

%"class.i18n::phonenumbers::UnicodeText::Repr" = type <{ ptr, i32, i32, i8, i8, [6 x i8] }>

; Function Attrs: mustprogress nounwind uwtable
define dso_local void @_ZN4i18n12phonenumbers11UnicodeText4Repr15TakeOwnershipOfEPcii(ptr noundef nonnull align 8 dereferenceable(18) %0, ptr noundef %1, i32 noundef %2, i32 noundef %3) #1 align 2 {
  %5 = alloca ptr, align 8
  %6 = alloca ptr, align 8
  %7 = alloca i32, align 4
  %8 = alloca i32, align 4
  store ptr %0, ptr %5, align 8, !tbaa !18
  store ptr %1, ptr %6, align 8, !tbaa !12
  store i32 %2, ptr %7, align 4, !tbaa !13
  store i32 %3, ptr %8, align 4, !tbaa !13
  %9 = load ptr, ptr %5, align 8
  %10 = load ptr, ptr %6, align 8, !tbaa !12
  %11 = getelementptr inbounds nuw %"class.i18n::phonenumbers::UnicodeText::Repr", ptr %9, i32 0, i32 0
  %12 = load ptr, ptr %11, align 8, !tbaa !26
  %13 = icmp eq ptr %10, %12
  br i1 %13, label %14, label %15

14:                                               ; preds = %4
  br label %37

15:                                               ; preds = %4
  %16 = getelementptr inbounds nuw %"class.i18n::phonenumbers::UnicodeText::Repr", ptr %9, i32 0, i32 3
  %17 = load i8, ptr %16, align 8, !tbaa !23, !range !24, !noundef !25
  %18 = trunc i8 %17 to i1
  br i1 %18, label %19, label %29

19:                                               ; preds = %15
  %20 = getelementptr inbounds nuw %"class.i18n::phonenumbers::UnicodeText::Repr", ptr %9, i32 0, i32 0
  %21 = load ptr, ptr %20, align 8, !tbaa !26
  %22 = icmp ne ptr %21, null
  br i1 %22, label %23, label %29

23:                                               ; preds = %19
  %24 = getelementptr inbounds nuw %"class.i18n::phonenumbers::UnicodeText::Repr", ptr %9, i32 0, i32 0
  %25 = load ptr, ptr %24, align 8, !tbaa !26
  %26 = icmp eq ptr %25, null
  br i1 %26, label %28, label %27

27:                                               ; preds = %23
  call void @_ZdaPv(ptr noundef %25) #17
  br label %28

28:                                               ; preds = %27, %23
  br label %29

29:                                               ; preds = %28, %19, %15
  %30 = load ptr, ptr %6, align 8, !tbaa !12
  %31 = getelementptr inbounds nuw %"class.i18n::phonenumbers::UnicodeText::Repr", ptr %9, i32 0, i32 0
  store ptr %30, ptr %31, align 8, !tbaa !26
  %32 = load i32, ptr %7, align 4, !tbaa !13
  %33 = getelementptr inbounds nuw %"class.i18n::phonenumbers::UnicodeText::Repr", ptr %9, i32 0, i32 1
  store i32 %32, ptr %33, align 8, !tbaa !27
  %34 = load i32, ptr %8, align 4, !tbaa !13
  %35 = getelementptr inbounds nuw %"class.i18n::phonenumbers::UnicodeText::Repr", ptr %9, i32 0, i32 2
  store i32 %34, ptr %35, align 4, !tbaa !20
  %36 = getelementptr inbounds nuw %"class.i18n::phonenumbers::UnicodeText::Repr", ptr %9, i32 0, i32 3
  store i8 1, ptr %36, align 8, !tbaa !23
  br label %37

37:                                               ; preds = %29, %14
  ret void
}